; ModuleID = '20/467.c'
source_filename = "20/467.c"
target datalayout = "e-m:e-p270:32:32-p271:32:32-p272:64:64-i64:64-f80:128-n8:16:32:64-S128"
target triple = "x86_64-pc-linux-gnu"

@.str = private unnamed_addr constant [6 x i8] c"%s %s\00", align 1

; Function Attrs: noinline nounwind uwtable
define dso_local void @main() #0 {
  %1 = alloca i32, align 4
  %2 = alloca i32, align 4
  %3 = alloca i32, align 4
  %4 = alloca i32, align 4
  %5 = alloca i8*, align 8
  %6 = alloca [20 x i8], align 16
  %7 = alloca [20 x i8], align 16
  %8 = alloca [20 x i8], align 16
  %9 = alloca i8*, align 8
  br label %10

10:                                               ; preds = %78, %0
  %11 = getelementptr inbounds [20 x i8], [20 x i8]* %6, i64 0, i64 0
  %12 = getelementptr inbounds [20 x i8], [20 x i8]* %7, i64 0, i64 0
  %13 = call i32 (i8*, ...) @__isoc99_scanf(i8* getelementptr inbounds ([6 x i8], [6 x i8]* @.str, i64 0, i64 0), i8* %11, i8* %12)
  %14 = icmp ne i32 %13, -1
  br i1 %14, label %15, label %88

15:                                               ; preds = %10
  %16 = getelementptr inbounds [20 x i8], [20 x i8]* %6, i64 0, i64 0
  store i8* %16, i8** %5, align 8
  %17 = getelementptr inbounds [20 x i8], [20 x i8]* %8, i64 0, i64 0
  store i8* %17, i8** %9, align 8
  store i32 0, i32* %1, align 4
  store i32 0, i32* %3, align 4
  br label %18

18:                                               ; preds = %41, %15
  %19 = load i32, i32* %1, align 4
  %20 = sext i32 %19 to i64
  %21 = getelementptr inbounds [20 x i8], [20 x i8]* %6, i64 0, i64 %20
  %22 = load i8, i8* %21, align 1
  %23 = sext i8 %22 to i32
  %24 = icmp ne i32 %23, 0
  br i1 %24, label %25, label %44

25:                                               ; preds = %18
  %26 = load i32, i32* %1, align 4
  %27 = sext i32 %26 to i64
  %28 = getelementptr inbounds [20 x i8], [20 x i8]* %6, i64 0, i64 %27
  %29 = load i8, i8* %28, align 1
  %30 = sext i8 %29 to i32
  %31 = load i32, i32* %3, align 4
  %32 = icmp sgt i32 %30, %31
  br i1 %32, label %33, label %40

33:                                               ; preds = %25
  %34 = load i32, i32* %1, align 4
  %35 = sext i32 %34 to i64
  %36 = getelementptr inbounds [20 x i8], [20 x i8]* %6, i64 0, i64 %35
  %37 = load i8, i8* %36, align 1
  %38 = sext i8 %37 to i32
  store i32 %38, i32* %3, align 4
  %39 = load i32, i32* %1, align 4
  store i32 %39, i32* %2, align 4
  br label %40

40:                                               ; preds = %33, %25
  br label %41

41:                                               ; preds = %40
  %42 = load i32, i32* %1, align 4
  %43 = add nsw i32 %42, 1
  store i32 %43, i32* %1, align 4
  br label %18

44:                                               ; preds = %18
  %45 = getelementptr inbounds [20 x i8], [20 x i8]* %8, i64 0, i64 0
  %46 = getelementptr inbounds [20 x i8], [20 x i8]* %6, i64 0, i64 0
  %47 = call i8* @strcpy(i8* %45, i8* %46) #4
  %48 = load i8*, i8** %9, align 8
  %49 = load i32, i32* %2, align 4
  %50 = sext i32 %49 to i64
  %51 = getelementptr inbounds i8, i8* %48, i64 %50
  %52 = getelementptr inbounds i8, i8* %51, i64 1
  store i8 0, i8* %52, align 1
  %53 = getelementptr inbounds [20 x i8], [20 x i8]* %8, i64 0, i64 0
  %54 = getelementptr inbounds [20 x i8], [20 x i8]* %7, i64 0, i64 0
  %55 = call i8* @strcat(i8* %53, i8* %54) #4
  %56 = load i32, i32* %2, align 4
  %57 = add nsw i32 %56, 1
  %58 = sext i32 %57 to i64
  %59 = getelementptr inbounds [20 x i8], [20 x i8]* %6, i64 0, i64 %58
  store i8* %59, i8** %5, align 8
  %60 = load i32, i32* %2, align 4
  %61 = add nsw i32 %60, 4
  %62 = sext i32 %61 to i64
  %63 = getelementptr inbounds [20 x i8], [20 x i8]* %8, i64 0, i64 %62
  store i8* %63, i8** %9, align 8
  br label %64

64:                                               ; preds = %73, %44
  %65 = load i8*, i8** %5, align 8
  %66 = load i8, i8* %65, align 1
  %67 = sext i8 %66 to i32
  %68 = icmp ne i32 %67, 0
  br i1 %68, label %69, label %78

69:                                               ; preds = %64
  %70 = load i8*, i8** %5, align 8
  %71 = load i8, i8* %70, align 1
  %72 = load i8*, i8** %9, align 8
  store i8 %71, i8* %72, align 1
  br label %73

73:                                               ; preds = %69
  %74 = load i8*, i8** %5, align 8
  %75 = getelementptr inbounds i8, i8* %74, i32 1
  store i8* %75, i8** %5, align 8
  %76 = load i8*, i8** %9, align 8
  %77 = getelementptr inbounds i8, i8* %76, i32 1
  store i8* %77, i8** %9, align 8
  br label %64

78:                                               ; preds = %64
  %79 = getelementptr inbounds [20 x i8], [20 x i8]* %6, i64 0, i64 0
  %80 = call i64 @strlen(i8* %79) #5
  %81 = trunc i64 %80 to i32
  store i32 %81, i32* %4, align 4
  %82 = load i32, i32* %4, align 4
  %83 = add nsw i32 %82, 3
  %84 = sext i32 %83 to i64
  %85 = getelementptr inbounds [20 x i8], [20 x i8]* %8, i64 0, i64 %84
  store i8 0, i8* %85, align 1
  %86 = getelementptr inbounds [20 x i8], [20 x i8]* %8, i64 0, i64 0
  %87 = call i32 @puts(i8* %86)
  br label %10

88:                                               ; preds = %10
  ret void
}

declare dso_local i32 @__isoc99_scanf(i8*, ...) #1

; Function Attrs: nounwind
declare dso_local i8* @strcpy(i8*, i8*) #2

; Function Attrs: nounwind
declare dso_local i8* @strcat(i8*, i8*) #2

; Function Attrs: nounwind readonly
declare dso_local i64 @strlen(i8*) #3

declare dso_local i32 @puts(i8*) #1


!llvm.module.flags = !{!0}
!llvm.ident = !{!1}

!0 = !{i32 1, !"wchar_size", i32 4}
!1 = !{!"clang version 10.0.0-4ubuntu1 "}
